; Function Attrs: mustprogress nounwind uwtable
define hidden void @_ZN2cv10ExifReaderD2Ev(ptr noundef nonnull align 8 dereferenceable(76) %0) unnamed_addr #4 align 2 personality ptr @__gxx_personality_v0 {
  %2 = getelementptr inbounds nuw i8, ptr %0, i64 24
  %3 = getelementptr inbounds nuw i8, ptr %0, i64 40
  %4 = load ptr, ptr %3, align 8, !tbaa !30
  invoke void @_ZNSt8_Rb_treeIiSt4pairIKiN2cv11ExifEntry_tEESt10_Select1stIS4_ESt4lessIiESaIS4_EE8_M_eraseEPSt13_Rb_tree_nodeIS4_E(ptr noundef nonnull align 8 dereferenceable(48) %2, ptr noundef %4)
          to label %_ZNSt3mapIiN2cv11ExifEntry_tESt4lessIiESaISt4pairIKiS1_EEED2Ev.exit unwind label %5

5:                                                ; preds = %1
  %6 = landingpad { ptr, i32 }
          catch ptr null
  %7 = extractvalue { ptr, i32 } %6, 0
  tail call void @__clang_call_terminate(ptr %7) #23
  unreachable

_ZNSt3mapIiN2cv11ExifEntry_tESt4lessIiESaISt4pairIKiS1_EEED2Ev.exit: ; preds = %1
  %8 = load ptr, ptr %0, align 8, !tbaa !46
  %.not.i.i.i = icmp eq ptr %8, null
  br i1 %.not.i.i.i, label %_ZNSt6vectorIhSaIhEED2Ev.exit, label %9

9:                                                ; preds = %_ZNSt3mapIiN2cv11ExifEntry_tESt4lessIiESaISt4pairIKiS1_EEED2Ev.exit
  tail call void @_ZdlPv(ptr noundef nonnull %8) #24
  br label %_ZNSt6vectorIhSaIhEED2Ev.exit

_ZNSt6vectorIhSaIhEED2Ev.exit:                    ; preds = %_ZNSt3mapIiN2cv11ExifEntry_tESt4lessIiESaISt4pairIKiS1_EEED2Ev.exit, %9
  ret void
}